target datalayout = "e-m:e-p270:32:32-p271:32:32-p272:64:64-i64:64-i128:128-f80:128-n8:16:32:64-S128"
target triple = "x86_64-pc-linux-gnu"

; Function Attrs: mustprogress nounwind uwtable
define internal noundef i64 @_ZN32pxrInternal_v0_24__pxrReserved__L17_StringToPositiveImEET_PKcPb(ptr noundef %0, ptr noundef %1) #5 {
  %3 = alloca i64, align 8
  %4 = alloca ptr, align 8
  %5 = alloca ptr, align 8
  %6 = alloca i64, align 8
  %7 = alloca i64, align 8
  %8 = alloca i64, align 8
  %9 = alloca i64, align 8
  store ptr %0, ptr %4, align 8
  store ptr %1, ptr %5, align 8
  store i64 10, ptr %6, align 8
  store i64 -1, ptr %7, align 8
  store i64 0, ptr %8, align 8
  br label %10

10:                                               ; preds = %41, %2
  %11 = load ptr, ptr %4, align 8
  %12 = load i8, ptr %11, align 1
  %13 = sext i8 %12 to i32
  %14 = icmp sge i32 %13, 48
  br i1 %14, label %15, label %20

15:                                               ; preds = %10
  %16 = load ptr, ptr %4, align 8
  %17 = load i8, ptr %16, align 1
  %18 = sext i8 %17 to i32
  %19 = icmp sle i32 %18, 57
  br label %20

20:                                               ; preds = %15, %10
  %21 = phi i1 [ false, %10 ], [ %19, %15 ]
  br i1 %21, label %22, label %46

22:                                               ; preds = %20
  %23 = load ptr, ptr %4, align 8
  %24 = getelementptr inbounds i8, ptr %23, i32 1
  store ptr %24, ptr %4, align 8
  %25 = load i8, ptr %23, align 1
  %26 = sext i8 %25 to i32
  %27 = sub nsw i32 %26, 48
  %28 = sext i32 %27 to i64
  store i64 %28, ptr %9, align 8
  %29 = load i64, ptr %8, align 8
  %30 = load i64, ptr %9, align 8
  %31 = icmp ugt i64 %30, 5
  %32 = zext i1 %31 to i64
  %33 = sub i64 1844674407370955161, %32
  %34 = icmp ugt i64 %29, %33
  br i1 %34, label %35, label %41

35:                                               ; preds = %22
  %36 = load ptr, ptr %5, align 8
  %37 = icmp ne ptr %36, null
  br i1 %37, label %38, label %40

38:                                               ; preds = %35
  %39 = load ptr, ptr %5, align 8
  store i8 1, ptr %39, align 1
  br label %40

40:                                               ; preds = %38, %35
  store i64 -1, ptr %3, align 8
  br label %48

41:                                               ; preds = %22
  %42 = load i64, ptr %8, align 8
  %43 = mul i64 %42, 10
  %44 = load i64, ptr %9, align 8
  %45 = add i64 %43, %44
  store i64 %45, ptr %8, align 8
  br label %10, !llvm.loop !7

46:                                               ; preds = %20
  %47 = load i64, ptr %8, align 8
  store i64 %47, ptr %3, align 8
  br label %48

48:                                               ; preds = %46, %40
  %49 = load i64, ptr %3, align 8
  ret i64 %49
}

; Function Attrs: mustprogress uwtable
define noundef i64 @_ZN32pxrInternal_v0_24__pxrReserved__16TfStringToUInt64EPKcPb(ptr noundef %0, ptr noundef %1) #0 {
  %3 = alloca ptr, align 8
  %4 = alloca ptr, align 8
  store ptr %0, ptr %3, align 8
  store ptr %1, ptr %4, align 8
  %5 = load ptr, ptr %3, align 8
  %6 = load ptr, ptr %4, align 8
  %7 = call noundef i64 @_ZN32pxrInternal_v0_24__pxrReserved__L17_StringToPositiveImEET_PKcPb(ptr noundef %5, ptr noundef %6)
  ret i64 %7
}