; Function Attrs: mustprogress nofree norecurse nosync nounwind memory(argmem: readwrite) uwtable
define noundef i64 @_ZN32pxrInternal_v0_24__pxrReserved__16TfStringToUInt64EPKcPb(ptr nocapture noundef readonly %0, ptr noundef writeonly %1) local_unnamed_addr #5 {
  %3 = load i8, ptr %0, align 1
  %4 = add i8 %3, -48
  %or.cond15.i = icmp ult i8 %4, 10
  br i1 %or.cond15.i, label %.lr.ph.i, label %_ZN32pxrInternal_v0_24__pxrReserved__L17_StringToPositiveImEET_PKcPb.exit

.lr.ph.i:                                         ; preds = %2, %11
  %5 = phi i8 [ %16, %11 ], [ %3, %2 ]
  %.01017.i = phi i64 [ %15, %11 ], [ 0, %2 ]
  %.01116.i = phi ptr [ %13, %11 ], [ %0, %2 ]
  %narrow.i = add nsw i8 %5, -48
  %6 = icmp ugt i8 %narrow.i, 5
  %7 = select i1 %6, i64 1844674407370955160, i64 1844674407370955161
  %8 = icmp ugt i64 %.01017.i, %7
  br i1 %8, label %9, label %11

9:                                                ; preds = %.lr.ph.i
  %.not.i = icmp eq ptr %1, null
  br i1 %.not.i, label %_ZN32pxrInternal_v0_24__pxrReserved__L17_StringToPositiveImEET_PKcPb.exit, label %10

10:                                               ; preds = %9
  store i8 1, ptr %1, align 1
  br label %_ZN32pxrInternal_v0_24__pxrReserved__L17_StringToPositiveImEET_PKcPb.exit

11:                                               ; preds = %.lr.ph.i
  %12 = zext nneg i8 %narrow.i to i64
  %13 = getelementptr inbounds i8, ptr %.01116.i, i64 1
  %14 = mul nuw i64 %.01017.i, 10
  %15 = add i64 %14, %12
  %16 = load i8, ptr %13, align 1
  %17 = add i8 %16, -48
  %or.cond.i = icmp ult i8 %17, 10
  br i1 %or.cond.i, label %.lr.ph.i, label %_ZN32pxrInternal_v0_24__pxrReserved__L17_StringToPositiveImEET_PKcPb.exit, !llvm.loop !7

_ZN32pxrInternal_v0_24__pxrReserved__L17_StringToPositiveImEET_PKcPb.exit: ; preds = %11, %2, %9, %10
  %.0.i = phi i64 [ -1, %10 ], [ -1, %9 ], [ 0, %2 ], [ %15, %11 ]
  ret i64 %.0.i
}